; Function Attrs: nounwind uwtable
define hidden void @SDL_DestroyGPUDevice_REAL(ptr noundef %0) local_unnamed_addr #0 {
  %2 = icmp eq ptr %0, null
  br i1 %2, label %3, label %5

3:                                                ; preds = %1
  %4 = tail call zeroext i1 (ptr, ...) @SDL_SetError_REAL(ptr noundef nonnull @.str.3) #7
  br label %7

5:                                                ; preds = %1
  %6 = load ptr, ptr %0, align 8
  tail call void %6(ptr noundef nonnull %0) #7
  br label %7

7:                                                ; preds = %5, %3
  ret void
}